ARM GAS  C:\Users\silsp\AppData\Local\Temp\ccyx6NR3.s 			page 1


   1              		.cpu cortex-m4
   2              		.arch armv7e-m
   3              		.fpu fpv4-sp-d16
   4              		.eabi_attribute 27, 1
   5              		.eabi_attribute 28, 1
   6              		.eabi_attribute 20, 1
   7              		.eabi_attribute 21, 1
   8              		.eabi_attribute 23, 3
   9              		.eabi_attribute 24, 1
  10              		.eabi_attribute 25, 1
  11              		.eabi_attribute 26, 1
  12              		.eabi_attribute 30, 1
  13              		.eabi_attribute 34, 1
  14              		.eabi_attribute 18, 4
  15              		.file	"button.c"
  16              		.text
  17              	.Ltext0:
  18              		.cfi_sections	.debug_frame
  19              		.file 1 "Core/Src/button.c"
  20              		.section	.text.Button_sample,"ax",%progbits
  21              		.align	1
  22              		.syntax unified
  23              		.thumb
  24              		.thumb_func
  26              	Button_sample:
  27              	.LVL0:
  28              	.LFB239:
   1:Core/Src/button.c **** /**
   2:Core/Src/button.c ****   * @file   button.c
   3:Core/Src/button.c ****   * @author BFH-TI / Matthias WAELTI <waltm5@bfh.ch>
   4:Core/Src/button.c ****   * @author BFH-TI / Daniel DEBRUNNER <dnd1@bfh.ch>
   5:Core/Src/button.c ****   * @version 1.0.0
   6:Core/Src/button.c ****   * @date 23.04.2018
   7:Core/Src/button.c ****   * @brief  Driver for a push button.
   8:Core/Src/button.c ****   * @hardware NucleoF446RE, mbed-016.1-application-shield
   9:Core/Src/button.c ****   */
  10:Core/Src/button.c **** 
  11:Core/Src/button.c **** #include "button.h"
  12:Core/Src/button.c **** #include "button_driver.h"
  13:Core/Src/button.c **** 
  14:Core/Src/button.c **** #define MAX_NUMBER_OF_FILTERS 10
  15:Core/Src/button.c **** 
  16:Core/Src/button.c **** static InputFilter filterSet[MAX_NUMBER_OF_FILTERS] = {};
  17:Core/Src/button.c **** static uint8_t initializedFilters = 0;
  18:Core/Src/button.c **** 
  19:Core/Src/button.c **** static void Button_sample(Button *const _this)
  20:Core/Src/button.c **** {
  29              		.loc 1 20 1 view -0
  30              		.cfi_startproc
  31              		@ args = 0, pretend = 0, frame = 0
  32              		@ frame_needed = 0, uses_anonymous_args = 0
  33              		.loc 1 20 1 is_stmt 0 view .LVU1
  34 0000 08B5     		push	{r3, lr}
  35              		.cfi_def_cfa_offset 8
  36              		.cfi_offset 3, -8
  37              		.cfi_offset 14, -4
  21:Core/Src/button.c ****     _this->filter->sample(_this->filter);
ARM GAS  C:\Users\silsp\AppData\Local\Temp\ccyx6NR3.s 			page 2


  38              		.loc 1 21 5 is_stmt 1 view .LVU2
  39              		.loc 1 21 10 is_stmt 0 view .LVU3
  40 0002 0068     		ldr	r0, [r0]
  41              	.LVL1:
  42              		.loc 1 21 18 view .LVU4
  43 0004 C368     		ldr	r3, [r0, #12]
  44              		.loc 1 21 5 view .LVU5
  45 0006 9847     		blx	r3
  46              	.LVL2:
  22:Core/Src/button.c **** }
  47              		.loc 1 22 1 view .LVU6
  48 0008 08BD     		pop	{r3, pc}
  49              		.cfi_endproc
  50              	.LFE239:
  52              		.section	.text.Button_getEdge,"ax",%progbits
  53              		.align	1
  54              		.syntax unified
  55              		.thumb
  56              		.thumb_func
  58              	Button_getEdge:
  59              	.LVL3:
  60              	.LFB240:
  23:Core/Src/button.c **** 
  24:Core/Src/button.c **** static edge Button_getEdge(Button *const _this)
  25:Core/Src/button.c **** {
  61              		.loc 1 25 1 is_stmt 1 view -0
  62              		.cfi_startproc
  63              		@ args = 0, pretend = 0, frame = 0
  64              		@ frame_needed = 0, uses_anonymous_args = 0
  65              		.loc 1 25 1 is_stmt 0 view .LVU8
  66 0000 08B5     		push	{r3, lr}
  67              		.cfi_def_cfa_offset 8
  68              		.cfi_offset 3, -8
  69              		.cfi_offset 14, -4
  26:Core/Src/button.c ****     return _this->filter->getEdge(_this->filter);
  70              		.loc 1 26 5 is_stmt 1 view .LVU9
  71              		.loc 1 26 17 is_stmt 0 view .LVU10
  72 0002 0068     		ldr	r0, [r0]
  73              	.LVL4:
  74              		.loc 1 26 25 view .LVU11
  75 0004 0369     		ldr	r3, [r0, #16]
  76              		.loc 1 26 12 view .LVU12
  77 0006 9847     		blx	r3
  78              	.LVL5:
  27:Core/Src/button.c **** }
  79              		.loc 1 27 1 view .LVU13
  80 0008 08BD     		pop	{r3, pc}
  81              		.cfi_endproc
  82              	.LFE240:
  84              		.section	.text.Button_init,"ax",%progbits
  85              		.align	1
  86              		.global	Button_init
  87              		.syntax unified
  88              		.thumb
  89              		.thumb_func
  91              	Button_init:
  92              	.LVL6:
ARM GAS  C:\Users\silsp\AppData\Local\Temp\ccyx6NR3.s 			page 3


  93              	.LFB241:
  28:Core/Src/button.c **** 
  29:Core/Src/button.c **** uint8_t Button_init(Button *const _this, GPIO_TypeDef *const port, uint16_t pin)
  30:Core/Src/button.c **** {
  94              		.loc 1 30 1 is_stmt 1 view -0
  95              		.cfi_startproc
  96              		@ args = 0, pretend = 0, frame = 0
  97              		@ frame_needed = 0, uses_anonymous_args = 0
  31:Core/Src/button.c ****     if (initializedFilters == MAX_NUMBER_OF_FILTERS)
  98              		.loc 1 31 5 view .LVU15
  99              		.loc 1 31 28 is_stmt 0 view .LVU16
 100 0000 0D4B     		ldr	r3, .L12
 101 0002 1B78     		ldrb	r3, [r3]	@ zero_extendqisi2
 102              		.loc 1 31 8 view .LVU17
 103 0004 0A2B     		cmp	r3, #10
 104 0006 14D0     		beq	.L7
  30:Core/Src/button.c ****     if (initializedFilters == MAX_NUMBER_OF_FILTERS)
 105              		.loc 1 30 1 view .LVU18
 106 0008 10B5     		push	{r4, lr}
 107              		.cfi_def_cfa_offset 8
 108              		.cfi_offset 4, -8
 109              		.cfi_offset 14, -4
 110 000a 0446     		mov	r4, r0
  32:Core/Src/button.c ****         return EXIT_FAILURE;
  33:Core/Src/button.c **** 
  34:Core/Src/button.c ****     _this->filter =  &filterSet[initializedFilters++];
 111              		.loc 1 34 5 is_stmt 1 view .LVU19
 112              		.loc 1 34 51 is_stmt 0 view .LVU20
 113 000c 03F1010C 		add	ip, r3, #1
 114 0010 0948     		ldr	r0, .L12
 115              	.LVL7:
 116              		.loc 1 34 51 view .LVU21
 117 0012 80F800C0 		strb	ip, [r0]
 118              		.loc 1 34 22 view .LVU22
 119 0016 03EB8303 		add	r3, r3, r3, lsl #2
 120 001a 0848     		ldr	r0, .L12+4
 121 001c 00EB8300 		add	r0, r0, r3, lsl #2
 122              		.loc 1 34 19 view .LVU23
 123 0020 2060     		str	r0, [r4]
  35:Core/Src/button.c ****     InputFilter_init(_this->filter, port, pin);
 124              		.loc 1 35 5 is_stmt 1 view .LVU24
 125 0022 FFF7FEFF 		bl	InputFilter_init
 126              	.LVL8:
  36:Core/Src/button.c **** 
  37:Core/Src/button.c ****     _this->sample = Button_sample;
 127              		.loc 1 37 5 view .LVU25
 128              		.loc 1 37 19 is_stmt 0 view .LVU26
 129 0026 064B     		ldr	r3, .L12+8
 130 0028 6360     		str	r3, [r4, #4]
  38:Core/Src/button.c ****     _this->getEdge = Button_getEdge;
 131              		.loc 1 38 5 is_stmt 1 view .LVU27
 132              		.loc 1 38 20 is_stmt 0 view .LVU28
 133 002a 064B     		ldr	r3, .L12+12
 134 002c A360     		str	r3, [r4, #8]
  39:Core/Src/button.c ****     return EXIT_SUCCESS;
 135              		.loc 1 39 5 is_stmt 1 view .LVU29
 136              		.loc 1 39 12 is_stmt 0 view .LVU30
ARM GAS  C:\Users\silsp\AppData\Local\Temp\ccyx6NR3.s 			page 4


 137 002e 0020     		movs	r0, #0
  40:Core/Src/button.c **** }
 138              		.loc 1 40 1 view .LVU31
 139 0030 10BD     		pop	{r4, pc}
 140              	.LVL9:
 141              	.L7:
 142              		.cfi_def_cfa_offset 0
 143              		.cfi_restore 4
 144              		.cfi_restore 14
  32:Core/Src/button.c **** 
 145              		.loc 1 32 16 view .LVU32
 146 0032 0120     		movs	r0, #1
 147              	.LVL10:
 148              		.loc 1 40 1 view .LVU33
 149 0034 7047     		bx	lr
 150              	.L13:
 151 0036 00BF     		.align	2
 152              	.L12:
 153 0038 00000000 		.word	initializedFilters
 154 003c 00000000 		.word	filterSet
 155 0040 00000000 		.word	Button_sample
 156 0044 00000000 		.word	Button_getEdge
 157              		.cfi_endproc
 158              	.LFE241:
 160              		.section	.bss.initializedFilters,"aw",%nobits
 163              	initializedFilters:
 164 0000 00       		.space	1
 165              		.section	.bss.filterSet,"aw",%nobits
 166              		.align	2
 169              	filterSet:
 170 0000 00000000 		.space	200
 170      00000000 
 170      00000000 
 170      00000000 
 170      00000000 
 171              		.text
 172              	.Letext0:
 173              		.file 2 "C:/Users/silsp/AppData/Roaming/Code/User/globalStorage/bmd.stm32-for-vscode/@xpack-dev-to
 174              		.file 3 "C:/Users/silsp/AppData/Roaming/Code/User/globalStorage/bmd.stm32-for-vscode/@xpack-dev-to
 175              		.file 4 "Drivers/CMSIS/Device/ST/STM32F4xx/Include/stm32f446xx.h"
 176              		.file 5 "Core/Inc/button_driver.h"
 177              		.file 6 "Core/Inc/button.h"
ARM GAS  C:\Users\silsp\AppData\Local\Temp\ccyx6NR3.s 			page 5

